; ModuleID = '20/494.c'
source_filename = "20/494.c"
target datalayout = "e-m:e-p270:32:32-p271:32:32-p272:64:64-i64:64-f80:128-n8:16:32:64-S128"
target triple = "x86_64-pc-linux-gnu"

@.str = private unnamed_addr constant [6 x i8] c"%s %s\00", align 1
@.str.1 = private unnamed_addr constant [3 x i8] c"%c\00", align 1
@.str.2 = private unnamed_addr constant [3 x i8] c"%s\00", align 1

; Function Attrs: noinline nounwind uwtable
define dso_local i32 @main() #0 {
  %1 = alloca i32, align 4
  %2 = alloca i32, align 4
  %3 = alloca i32, align 4
  %4 = alloca i32, align 4
  %5 = alloca [20 x i8], align 16
  %6 = alloca [20 x i8], align 16
  store i32 0, i32* %1, align 4
  br label %7

7:                                                ; preds = %82, %0
  %8 = getelementptr inbounds [20 x i8], [20 x i8]* %5, i64 0, i64 0
  %9 = getelementptr inbounds [20 x i8], [20 x i8]* %6, i64 0, i64 0
  %10 = call i32 (i8*, ...) @__isoc99_scanf(i8* getelementptr inbounds ([6 x i8], [6 x i8]* @.str, i64 0, i64 0), i8* %8, i8* %9)
  %11 = icmp ne i32 %10, -1
  br i1 %11, label %12, label %84

12:                                               ; preds = %7
  store i32 0, i32* %2, align 4
  store i32 0, i32* %3, align 4
  br label %13

13:                                               ; preds = %39, %12
  %14 = getelementptr inbounds [20 x i8], [20 x i8]* %5, i64 0, i64 0
  %15 = load i32, i32* %3, align 4
  %16 = sext i32 %15 to i64
  %17 = getelementptr inbounds i8, i8* %14, i64 %16
  %18 = load i8, i8* %17, align 1
  %19 = sext i8 %18 to i32
  %20 = icmp ne i32 %19, 0
  br i1 %20, label %21, label %42

21:                                               ; preds = %13
  %22 = getelementptr inbounds [20 x i8], [20 x i8]* %5, i64 0, i64 0
  %23 = load i32, i32* %3, align 4
  %24 = sext i32 %23 to i64
  %25 = getelementptr inbounds i8, i8* %22, i64 %24
  %26 = load i8, i8* %25, align 1
  %27 = sext i8 %26 to i32
  %28 = load i32, i32* %2, align 4
  %29 = icmp sgt i32 %27, %28
  br i1 %29, label %30, label %38

30:                                               ; preds = %21
  %31 = getelementptr inbounds [20 x i8], [20 x i8]* %5, i64 0, i64 0
  %32 = load i32, i32* %3, align 4
  %33 = sext i32 %32 to i64
  %34 = getelementptr inbounds i8, i8* %31, i64 %33
  %35 = load i8, i8* %34, align 1
  %36 = sext i8 %35 to i32
  store i32 %36, i32* %2, align 4
  %37 = load i32, i32* %3, align 4
  store i32 %37, i32* %4, align 4
  br label %38

38:                                               ; preds = %30, %21
  br label %39

39:                                               ; preds = %38
  %40 = load i32, i32* %3, align 4
  %41 = add nsw i32 %40, 1
  store i32 %41, i32* %3, align 4
  br label %13

42:                                               ; preds = %13
  store i32 0, i32* %3, align 4
  br label %43

43:                                               ; preds = %55, %42
  %44 = load i32, i32* %3, align 4
  %45 = load i32, i32* %4, align 4
  %46 = icmp sle i32 %44, %45
  br i1 %46, label %47, label %58

47:                                               ; preds = %43
  %48 = getelementptr inbounds [20 x i8], [20 x i8]* %5, i64 0, i64 0
  %49 = load i32, i32* %3, align 4
  %50 = sext i32 %49 to i64
  %51 = getelementptr inbounds i8, i8* %48, i64 %50
  %52 = load i8, i8* %51, align 1
  %53 = sext i8 %52 to i32
  %54 = call i32 (i8*, ...) @printf(i8* getelementptr inbounds ([3 x i8], [3 x i8]* @.str.1, i64 0, i64 0), i32 %53)
  br label %55

55:                                               ; preds = %47
  %56 = load i32, i32* %3, align 4
  %57 = add nsw i32 %56, 1
  store i32 %57, i32* %3, align 4
  br label %43

58:                                               ; preds = %43
  %59 = getelementptr inbounds [20 x i8], [20 x i8]* %6, i64 0, i64 0
  %60 = call i32 (i8*, ...) @printf(i8* getelementptr inbounds ([3 x i8], [3 x i8]* @.str.2, i64 0, i64 0), i8* %59)
  %61 = load i32, i32* %4, align 4
  %62 = add nsw i32 %61, 1
  store i32 %62, i32* %3, align 4
  br label %63

63:                                               ; preds = %79, %58
  %64 = getelementptr inbounds [20 x i8], [20 x i8]* %5, i64 0, i64 0
  %65 = load i32, i32* %3, align 4
  %66 = sext i32 %65 to i64
  %67 = getelementptr inbounds i8, i8* %64, i64 %66
  %68 = load i8, i8* %67, align 1
  %69 = sext i8 %68 to i32
  %70 = icmp ne i32 %69, 0
  br i1 %70, label %71, label %82

71:                                               ; preds = %63
  %72 = getelementptr inbounds [20 x i8], [20 x i8]* %5, i64 0, i64 0
  %73 = load i32, i32* %3, align 4
  %74 = sext i32 %73 to i64
  %75 = getelementptr inbounds i8, i8* %72, i64 %74
  %76 = load i8, i8* %75, align 1
  %77 = sext i8 %76 to i32
  %78 = call i32 (i8*, ...) @printf(i8* getelementptr inbounds ([3 x i8], [3 x i8]* @.str.1, i64 0, i64 0), i32 %77)
  br label %79

79:                                               ; preds = %71
  %80 = load i32, i32* %3, align 4
  %81 = add nsw i32 %80, 1
  store i32 %81, i32* %3, align 4
  br label %63

82:                                               ; preds = %63
  %83 = call i32 (i8*, ...) @printf(i8* getelementptr inbounds ([3 x i8], [3 x i8]* @.str.1, i64 0, i64 0), i32 10)
  br label %7

84:                                               ; preds = %7
  %85 = load i32, i32* %1, align 4
  ret i32 %85
}

declare dso_local i32 @__isoc99_scanf(i8*, ...) #1

declare dso_local i32 @printf(i8*, ...) #1


!llvm.module.flags = !{!0}
!llvm.ident = !{!1}

!0 = !{i32 1, !"wchar_size", i32 4}
!1 = !{!"clang version 10.0.0-4ubuntu1 "}
