; ModuleID = 'source-C-CXX/19/494.c'
source_filename = "source-C-CXX/19/494.c"
target datalayout = "e-m:e-p270:32:32-p271:32:32-p272:64:64-i64:64-f80:128-n8:16:32:64-S128"
target triple = "x86_64-pc-linux-gnu"

@.str = private unnamed_addr constant [6 x i8] c"%s %s\00", align 1
@.str.2 = private unnamed_addr constant [3 x i8] c"%s\00", align 1

; Function Attrs: nofree nounwind sspstrong uwtable
define dso_local i32 @main() local_unnamed_addr #0 {
  %1 = alloca [20 x i8], align 16
  %2 = alloca [20 x i8], align 16
  %3 = getelementptr inbounds [20 x i8], [20 x i8]* %1, i64 0, i64 0
  call void @llvm.lifetime.start.p0i8(i64 20, i8* nonnull %3) #4
  %4 = getelementptr inbounds [20 x i8], [20 x i8]* %2, i64 0, i64 0
  call void @llvm.lifetime.start.p0i8(i64 20, i8* nonnull %4) #4
  %5 = call i32 (i8*, ...) @__isoc99_scanf(i8* getelementptr inbounds ([6 x i8], [6 x i8]* @.str, i64 0, i64 0), i8* nonnull %3, i8* nonnull %4)
  %6 = icmp eq i32 %5, -1
  br i1 %6, label %61, label %7

7:                                                ; preds = %0, %57
  %8 = phi i32 [ %12, %57 ], [ undef, %0 ]
  %9 = load i8, i8* %3, align 16, !tbaa !5
  %10 = icmp eq i8 %9, 0
  br i1 %10, label %11, label %20

11:                                               ; preds = %20, %7
  %12 = phi i32 [ %8, %7 ], [ %29, %20 ]
  %13 = icmp slt i32 %12, 0
  %14 = add i32 %12, 1
  br i1 %13, label %42, label %15

15:                                               ; preds = %11
  %16 = zext i32 %14 to i64
  %17 = sext i8 %9 to i32
  %18 = call i32 @putchar(i32 %17)
  %19 = icmp eq i32 %12, 0
  br i1 %19, label %42, label %34, !llvm.loop !8

20:                                               ; preds = %7, %20
  %21 = phi i64 [ %30, %20 ], [ 0, %7 ]
  %22 = phi i8 [ %32, %20 ], [ %9, %7 ]
  %23 = phi i32 [ %29, %20 ], [ %8, %7 ]
  %24 = phi i32 [ %27, %20 ], [ 0, %7 ]
  %25 = sext i8 %22 to i32
  %26 = icmp slt i32 %24, %25
  %27 = select i1 %26, i32 %25, i32 %24
  %28 = trunc i64 %21 to i32
  %29 = select i1 %26, i32 %28, i32 %23
  %30 = add nuw nsw i64 %21, 1
  %31 = getelementptr inbounds [20 x i8], [20 x i8]* %1, i64 0, i64 %30
  %32 = load i8, i8* %31, align 1, !tbaa !5
  %33 = icmp eq i8 %32, 0
  br i1 %33, label %11, label %20, !llvm.loop !10

34:                                               ; preds = %15, %34
  %35 = phi i64 [ %40, %34 ], [ 1, %15 ]
  %36 = getelementptr inbounds [20 x i8], [20 x i8]* %1, i64 0, i64 %35
  %37 = load i8, i8* %36, align 1, !tbaa !5
  %38 = sext i8 %37 to i32
  %39 = call i32 @putchar(i32 %38)
  %40 = add nuw nsw i64 %35, 1
  %41 = icmp eq i64 %40, %16
  br i1 %41, label %42, label %34, !llvm.loop !8

42:                                               ; preds = %34, %15, %11
  %43 = call i32 (i8*, ...) @printf(i8* nonnull dereferenceable(1) getelementptr inbounds ([3 x i8], [3 x i8]* @.str.2, i64 0, i64 0), i8* nonnull %4)
  %44 = sext i32 %14 to i64
  %45 = getelementptr inbounds [20 x i8], [20 x i8]* %1, i64 0, i64 %44
  %46 = load i8, i8* %45, align 1, !tbaa !5
  %47 = icmp eq i8 %46, 0
  br i1 %47, label %57, label %48

48:                                               ; preds = %42, %48
  %49 = phi i64 [ %53, %48 ], [ %44, %42 ]
  %50 = phi i8 [ %55, %48 ], [ %46, %42 ]
  %51 = sext i8 %50 to i32
  %52 = call i32 @putchar(i32 %51)
  %53 = add i64 %49, 1
  %54 = getelementptr inbounds [20 x i8], [20 x i8]* %1, i64 0, i64 %53
  %55 = load i8, i8* %54, align 1, !tbaa !5
  %56 = icmp eq i8 %55, 0
  br i1 %56, label %57, label %48, !llvm.loop !11

57:                                               ; preds = %48, %42
  %58 = call i32 @putchar(i32 10)
  %59 = call i32 (i8*, ...) @__isoc99_scanf(i8* getelementptr inbounds ([6 x i8], [6 x i8]* @.str, i64 0, i64 0), i8* nonnull %3, i8* nonnull %4)
  %60 = icmp eq i32 %59, -1
  br i1 %60, label %61, label %7, !llvm.loop !12

61:                                               ; preds = %57, %0
  call void @llvm.lifetime.end.p0i8(i64 20, i8* nonnull %4) #4
  call void @llvm.lifetime.end.p0i8(i64 20, i8* nonnull %3) #4
  ret i32 0
}

; Function Attrs: argmemonly mustprogress nofree nosync nounwind willreturn
declare void @llvm.lifetime.start.p0i8(i64 immarg, i8* nocapture) #1

; Function Attrs: nofree nounwind
declare noundef i32 @__isoc99_scanf(i8* nocapture noundef readonly, ...) local_unnamed_addr #2

; Function Attrs: nofree nounwind
declare noundef i32 @printf(i8* nocapture noundef readonly, ...) local_unnamed_addr #2

; Function Attrs: argmemonly mustprogress nofree nosync nounwind willreturn
declare void @llvm.lifetime.end.p0i8(i64 immarg, i8* nocapture) #1

; Function Attrs: nofree nounwind
declare noundef i32 @putchar(i32 noundef) local_unnamed_addr #3


!llvm.module.flags = !{!0, !1, !2, !3}
!llvm.ident = !{!4}

!0 = !{i32 1, !"wchar_size", i32 4}
!1 = !{i32 7, !"PIC Level", i32 2}
!2 = !{i32 7, !"PIE Level", i32 2}
!3 = !{i32 7, !"uwtable", i32 1}
!4 = !{!"clang version 13.0.0"}
!5 = !{!6, !6, i64 0}
!6 = !{!"omnipotent char", !7, i64 0}
!7 = !{!"Simple C/C++ TBAA"}
!8 = distinct !{!8, !9}
!9 = !{!"llvm.loop.mustprogress"}
!10 = distinct !{!10, !9}
!11 = distinct !{!11, !9}
!12 = distinct !{!12, !9}
